target datalayout = "e-m:e-p270:32:32-p271:32:32-p272:64:64-i64:64-i128:128-f80:128-n8:16:32:64-S128"
target triple = "x86_64-pc-linux-gnu"

%struct.SimpleStringList = type { ptr, ptr }
%struct.PQExpBufferData = type { ptr, i64, i64 }

@pg_dump_bin = internal global [1024 x i8] zeroinitializer, align 16
@pgdumpopts = internal global ptr null, align 8
@output_clean = internal global i8 0, align 1
@connstr = internal global ptr @.str.120, align 8
@filename = internal global ptr null, align 8
@.str.101 = private unnamed_addr constant [9 x i8] c"postgres\00", align 1
@.str.102 = private unnamed_addr constant [10 x i8] c"template1\00", align 1
@database_exclude_names = internal global %struct.SimpleStringList zeroinitializer, align 8
@OPF = internal global ptr null, align 8
@.str.120 = private unnamed_addr constant [1 x i8] zeroinitializer, align 1
@.str.280 = private unnamed_addr constant [10 x i8] c"template0\00", align 1
@.str.285 = private unnamed_addr constant [119 x i8] c"SELECT datname FROM pg_database d WHERE datallowconn AND datconnlimit != -2 ORDER BY (datname <> 'template1'), datname\00", align 1
@.str.286 = private unnamed_addr constant [21 x i8] c"--\0A-- Databases\0A--\0A\0A\00", align 1
@.str.287 = private unnamed_addr constant [24 x i8] c"excluding database \22%s\22\00", align 1
@.str.288 = private unnamed_addr constant [22 x i8] c"dumping database \22%s\22\00", align 1
@.str.289 = private unnamed_addr constant [30 x i8] c"--\0A-- Database \22%s\22 dump\0A--\0A\0A\00", align 1
@.str.290 = private unnamed_addr constant [17 x i8] c"--clean --create\00", align 1
@.str.291 = private unnamed_addr constant [14 x i8] c"\\connect %s\0A\0A\00", align 1
@.str.292 = private unnamed_addr constant [9 x i8] c"--create\00", align 1
@.str.293 = private unnamed_addr constant [41 x i8] c"pg_dump failed on database \22%s\22, exiting\00", align 1
@.str.294 = private unnamed_addr constant [2 x i8] c"a\00", align 1
@.str.295 = private unnamed_addr constant [43 x i8] c"could not re-open the output file \22%s\22: %m\00", align 1
@.str.296 = private unnamed_addr constant [11 x i8] c"\22%s\22 %s %s\00", align 1
@.str.297 = private unnamed_addr constant [6 x i8] c" -Fa \00", align 1
@.str.298 = private unnamed_addr constant [6 x i8] c" -Fp \00", align 1
@.str.299 = private unnamed_addr constant [11 x i8] c"%s dbname=\00", align 1
@.str.300 = private unnamed_addr constant [13 x i8] c"running \22%s\22\00", align 1

; Function Attrs: nounwind uwtable
define internal i32 @runPgDump(ptr noundef %0, ptr noundef %1) #0 {
  %3 = alloca ptr, align 8
  %4 = alloca ptr, align 8
  %5 = alloca %struct.PQExpBufferData, align 8
  %6 = alloca %struct.PQExpBufferData, align 8
  %7 = alloca i32, align 4
  store ptr %0, ptr %3, align 8
  store ptr %1, ptr %4, align 8
  call void @llvm.lifetime.start.p0(i64 24, ptr %5) #11
  call void @llvm.lifetime.start.p0(i64 24, ptr %6) #11
  call void @llvm.lifetime.start.p0(i64 4, ptr %7) #11
  call void @initPQExpBuffer(ptr noundef %5)
  call void @initPQExpBuffer(ptr noundef %6)
  %8 = load ptr, ptr @pgdumpopts, align 8
  %9 = getelementptr inbounds nuw %struct.PQExpBufferData, ptr %8, i32 0, i32 0
  %10 = load ptr, ptr %9, align 8
  %11 = load ptr, ptr %4, align 8
  call void (ptr, ptr, ...) @printfPQExpBuffer(ptr noundef %6, ptr noundef @.str.296, ptr noundef @pg_dump_bin, ptr noundef %10, ptr noundef %11)
  %12 = load ptr, ptr @filename, align 8
  %13 = icmp ne ptr %12, null
  br i1 %13, label %14, label %15

14:                                               ; preds = %2
  call void @appendPQExpBufferStr(ptr noundef %6, ptr noundef @.str.297)
  br label %16

15:                                               ; preds = %2
  call void @appendPQExpBufferStr(ptr noundef %6, ptr noundef @.str.298)
  br label %16

16:                                               ; preds = %15, %14
  %17 = load ptr, ptr @connstr, align 8
  call void (ptr, ptr, ...) @appendPQExpBuffer(ptr noundef %5, ptr noundef @.str.299, ptr noundef %17)
  %18 = load ptr, ptr %3, align 8
  call void @appendConnStrVal(ptr noundef %5, ptr noundef %18)
  %19 = getelementptr inbounds nuw %struct.PQExpBufferData, ptr %5, i32 0, i32 0
  %20 = load ptr, ptr %19, align 8
  call void @appendShellString(ptr noundef %6, ptr noundef %20)
  %21 = getelementptr inbounds nuw %struct.PQExpBufferData, ptr %6, i32 0, i32 0
  %22 = load ptr, ptr %21, align 8
  call void (i32, i32, ptr, ...) @pg_log_generic(i32 noundef 2, i32 noundef 0, ptr noundef @.str.300, ptr noundef %22)
  %23 = call i32 @fflush(ptr noundef null)
  %24 = getelementptr inbounds nuw %struct.PQExpBufferData, ptr %6, i32 0, i32 0
  %25 = load ptr, ptr %24, align 8
  %26 = call i32 @system(ptr noundef %25)
  store i32 %26, ptr %7, align 4
  call void @termPQExpBuffer(ptr noundef %6)
  call void @termPQExpBuffer(ptr noundef %5)
  %27 = load i32, ptr %7, align 4
  call void @llvm.lifetime.end.p0(i64 4, ptr %7) #11
  call void @llvm.lifetime.end.p0(i64 24, ptr %6) #11
  call void @llvm.lifetime.end.p0(i64 24, ptr %5) #11
  ret i32 %27
}

; Function Attrs: nounwind uwtable
define internal void @dumpDatabases(ptr noundef %0) #0 {
  %2 = alloca ptr, align 8
  %3 = alloca ptr, align 8
  %4 = alloca i32, align 4
  %5 = alloca ptr, align 8
  %6 = alloca ptr, align 8
  %7 = alloca i32, align 4
  %8 = alloca i32, align 4
  store ptr %0, ptr %2, align 8
  call void @llvm.lifetime.start.p0(i64 8, ptr %3) #11
  call void @llvm.lifetime.start.p0(i64 4, ptr %4) #11
  %9 = load ptr, ptr %2, align 8
  %10 = call ptr @executeQuery(ptr noundef %9, ptr noundef @.str.285)
  store ptr %10, ptr %3, align 8
  %11 = load ptr, ptr %3, align 8
  %12 = call i32 @PQntuples(ptr noundef %11)
  %13 = icmp sgt i32 %12, 0
  br i1 %13, label %14, label %17

14:                                               ; preds = %1
  %15 = load ptr, ptr @OPF, align 8
  %16 = call i32 (ptr, ptr, ...) @pg_fprintf(ptr noundef %15, ptr noundef @.str.286)
  br label %17

17:                                               ; preds = %14, %1
  store i32 0, ptr %4, align 4
  br label %18

18:                                               ; preds = %93, %17
  %19 = load i32, ptr %4, align 4
  %20 = load ptr, ptr %3, align 8
  %21 = call i32 @PQntuples(ptr noundef %20)
  %22 = icmp slt i32 %19, %21
  br i1 %22, label %23, label %96

23:                                               ; preds = %18
  call void @llvm.lifetime.start.p0(i64 8, ptr %5) #11
  %24 = load ptr, ptr %3, align 8
  %25 = load i32, ptr %4, align 4
  %26 = call ptr @PQgetvalue(ptr noundef %24, i32 noundef %25, i32 noundef 0)
  store ptr %26, ptr %5, align 8
  call void @llvm.lifetime.start.p0(i64 8, ptr %6) #11
  call void @llvm.lifetime.start.p0(i64 4, ptr %7) #11
  %27 = load ptr, ptr %5, align 8
  %28 = call i32 @strcmp(ptr noundef %27, ptr noundef @.str.280) #12
  %29 = icmp eq i32 %28, 0
  br i1 %29, label %30, label %31

30:                                               ; preds = %23
  store i32 4, ptr %8, align 4
  br label %90

31:                                               ; preds = %23
  %32 = load ptr, ptr %5, align 8
  %33 = call zeroext i1 @simple_string_list_member(ptr noundef @database_exclude_names, ptr noundef %32)
  br i1 %33, label %34, label %36

34:                                               ; preds = %31
  %35 = load ptr, ptr %5, align 8
  call void (i32, i32, ptr, ...) @pg_log_generic(i32 noundef 2, i32 noundef 0, ptr noundef @.str.287, ptr noundef %35)
  store i32 4, ptr %8, align 4
  br label %90

36:                                               ; preds = %31
  %37 = load ptr, ptr %5, align 8
  call void (i32, i32, ptr, ...) @pg_log_generic(i32 noundef 2, i32 noundef 0, ptr noundef @.str.288, ptr noundef %37)
  %38 = load ptr, ptr @OPF, align 8
  %39 = load ptr, ptr %5, align 8
  %40 = call i32 (ptr, ptr, ...) @pg_fprintf(ptr noundef %38, ptr noundef @.str.289, ptr noundef %39)
  %41 = load ptr, ptr %5, align 8
  %42 = call i32 @strcmp(ptr noundef %41, ptr noundef @.str.102) #12
  %43 = icmp eq i32 %42, 0
  br i1 %43, label %48, label %44

44:                                               ; preds = %36
  %45 = load ptr, ptr %5, align 8
  %46 = call i32 @strcmp(ptr noundef %45, ptr noundef @.str.101) #12
  %47 = icmp eq i32 %46, 0
  br i1 %47, label %48, label %57

48:                                               ; preds = %44, %36
  %49 = load i8, ptr @output_clean, align 1, !range !6, !noundef !7
  %50 = trunc i8 %49 to i1
  br i1 %50, label %51, label %52

51:                                               ; preds = %48
  store ptr @.str.290, ptr %6, align 8
  br label %56

52:                                               ; preds = %48
  store ptr @.str.120, ptr %6, align 8
  %53 = load ptr, ptr @OPF, align 8
  %54 = load ptr, ptr %5, align 8
  %55 = call i32 (ptr, ptr, ...) @pg_fprintf(ptr noundef %53, ptr noundef @.str.291, ptr noundef %54)
  br label %56

56:                                               ; preds = %52, %51
  br label %58

57:                                               ; preds = %44
  store ptr @.str.292, ptr %6, align 8
  br label %58

58:                                               ; preds = %57, %56
  %59 = load ptr, ptr @filename, align 8
  %60 = icmp ne ptr %59, null
  br i1 %60, label %61, label %64

61:                                               ; preds = %58
  %62 = load ptr, ptr @OPF, align 8
  %63 = call i32 @fclose(ptr noundef %62)
  br label %64

64:                                               ; preds = %61, %58
  %65 = load ptr, ptr %5, align 8
  %66 = load ptr, ptr %6, align 8
  %67 = call i32 @runPgDump(ptr noundef %65, ptr noundef %66)
  store i32 %67, ptr %7, align 4
  %68 = load i32, ptr %7, align 4
  %69 = icmp ne i32 %68, 0
  br i1 %69, label %70, label %75

70:                                               ; preds = %64
  br label %71

71:                                               ; preds = %70
  %72 = load ptr, ptr %5, align 8
  call void (i32, i32, ptr, ...) @pg_log_generic(i32 noundef 4, i32 noundef 0, ptr noundef @.str.293, ptr noundef %72)
  call void @exit(i32 noundef 1) #13
  unreachable

73:                                               ; No predecessors!
  br label %74

74:                                               ; preds = %73
  br label %75

75:                                               ; preds = %74, %64
  %76 = load ptr, ptr @filename, align 8
  %77 = icmp ne ptr %76, null
  br i1 %77, label %78, label %89

78:                                               ; preds = %75
  %79 = load ptr, ptr @filename, align 8
  %80 = call noalias ptr @fopen(ptr noundef %79, ptr noundef @.str.294)
  store ptr %80, ptr @OPF, align 8
  %81 = load ptr, ptr @OPF, align 8
  %82 = icmp ne ptr %81, null
  br i1 %82, label %88, label %83

83:                                               ; preds = %78
  br label %84

84:                                               ; preds = %83
  %85 = load ptr, ptr @filename, align 8
  call void (i32, i32, ptr, ...) @pg_log_generic(i32 noundef 4, i32 noundef 0, ptr noundef @.str.295, ptr noundef %85)
  call void @exit(i32 noundef 1) #13
  unreachable

86:                                               ; No predecessors!
  br label %87

87:                                               ; preds = %86
  br label %88

88:                                               ; preds = %87, %78
  br label %89

89:                                               ; preds = %88, %75
  store i32 0, ptr %8, align 4
  br label %90

90:                                               ; preds = %89, %34, %30
  call void @llvm.lifetime.end.p0(i64 4, ptr %7) #11
  call void @llvm.lifetime.end.p0(i64 8, ptr %6) #11
  call void @llvm.lifetime.end.p0(i64 8, ptr %5) #11
  %91 = load i32, ptr %8, align 4
  switch i32 %91, label %98 [
    i32 0, label %92
    i32 4, label %93
  ]

92:                                               ; preds = %90
  br label %93

93:                                               ; preds = %92, %90
  %94 = load i32, ptr %4, align 4
  %95 = add i32 %94, 1
  store i32 %95, ptr %4, align 4
  br label %18, !llvm.loop !25

96:                                               ; preds = %18
  %97 = load ptr, ptr %3, align 8
  call void @PQclear(ptr noundef %97)
  call void @llvm.lifetime.end.p0(i64 4, ptr %4) #11
  call void @llvm.lifetime.end.p0(i64 8, ptr %3) #11
  ret void

98:                                               ; preds = %90
  unreachable
}