; Function Attrs: nounwind uwtable
define internal fastcc void @dumpDatabases(ptr noundef nonnull %0) unnamed_addr #4 {
  %2 = alloca %struct.PQExpBufferData, align 8
  %3 = alloca %struct.PQExpBufferData, align 8
  %4 = tail call fastcc ptr @executeQuery(ptr noundef %0, ptr noundef nonnull @.str.285)
  %5 = tail call i32 @PQntuples(ptr noundef nonnull %4) #15
  %6 = icmp sgt i32 %5, 0
  br i1 %6, label %7, label %10

7:                                                ; preds = %1
  %8 = load ptr, ptr @OPF, align 8
  %9 = tail call i32 (ptr, ptr, ...) @pg_fprintf(ptr noundef %8, ptr noundef nonnull @.str.286) #15
  br label %10

10:                                               ; preds = %7, %1
  %11 = tail call i32 @PQntuples(ptr noundef nonnull %4) #15
  %12 = icmp sgt i32 %11, 0
  br i1 %12, label %.lr.ph, label %._crit_edge

.lr.ph:                                           ; preds = %10, %53
  %.026 = phi i32 [ %54, %53 ], [ 0, %10 ]
  %13 = call ptr @PQgetvalue(ptr noundef nonnull %4, i32 noundef %.026, i32 noundef 0) #15
  %14 = call i32 @strcmp(ptr noundef nonnull dereferenceable(1) %13, ptr noundef nonnull dereferenceable(10) @.str.280) #16
  %15 = icmp eq i32 %14, 0
  br i1 %15, label %53, label %16

16:                                               ; preds = %.lr.ph
  %17 = call zeroext i1 @simple_string_list_member(ptr noundef nonnull @database_exclude_names, ptr noundef nonnull %13) #15
  br i1 %17, label %18, label %19

18:                                               ; preds = %16
  call void (i32, i32, ptr, ...) @pg_log_generic(i32 noundef 2, i32 noundef 0, ptr noundef nonnull @.str.287, ptr noundef nonnull %13) #15
  br label %53

19:                                               ; preds = %16
  call void (i32, i32, ptr, ...) @pg_log_generic(i32 noundef 2, i32 noundef 0, ptr noundef nonnull @.str.288, ptr noundef nonnull %13) #15
  %20 = load ptr, ptr @OPF, align 8
  %21 = call i32 (ptr, ptr, ...) @pg_fprintf(ptr noundef %20, ptr noundef nonnull @.str.289, ptr noundef nonnull %13) #15
  %22 = call i32 @strcmp(ptr noundef nonnull dereferenceable(1) %13, ptr noundef nonnull dereferenceable(10) @.str.102) #16
  %23 = icmp eq i32 %22, 0
  br i1 %23, label %27, label %24

24:                                               ; preds = %19
  %25 = call i32 @strcmp(ptr noundef nonnull dereferenceable(1) %13, ptr noundef nonnull dereferenceable(9) @.str.101) #16
  %26 = icmp eq i32 %25, 0
  br i1 %26, label %27, label %31

27:                                               ; preds = %24, %19
  %.b21 = load i1, ptr @output_clean, align 1
  br i1 %.b21, label %31, label %28

28:                                               ; preds = %27
  %29 = load ptr, ptr @OPF, align 8
  %30 = call i32 (ptr, ptr, ...) @pg_fprintf(ptr noundef %29, ptr noundef nonnull @.str.291, ptr noundef nonnull %13) #15
  br label %31

31:                                               ; preds = %24, %27, %28
  %.019 = phi ptr [ @.str.120, %28 ], [ @.str.290, %27 ], [ @.str.292, %24 ]
  %32 = load ptr, ptr @filename, align 8
  %.not = icmp eq ptr %32, null
  br i1 %.not, label %36, label %33

33:                                               ; preds = %31
  %34 = load ptr, ptr @OPF, align 8
  %35 = call i32 @fclose(ptr noundef %34)
  br label %36

36:                                               ; preds = %33, %31
  call void @llvm.lifetime.start.p0(i64 24, ptr nonnull %2) #15
  call void @llvm.lifetime.start.p0(i64 24, ptr nonnull %3) #15
  call void @initPQExpBuffer(ptr noundef nonnull %2) #15
  call void @initPQExpBuffer(ptr noundef nonnull %3) #15
  %37 = load ptr, ptr @pgdumpopts, align 8
  %38 = load ptr, ptr %37, align 8
  call void (ptr, ptr, ...) @printfPQExpBuffer(ptr noundef nonnull %3, ptr noundef nonnull @.str.296, ptr noundef nonnull @pg_dump_bin, ptr noundef %38, ptr noundef nonnull %.019) #15
  %39 = load ptr, ptr @filename, align 8
  %.not.i = icmp eq ptr %39, null
  %.str.298..str.297.i = select i1 %.not.i, ptr @.str.298, ptr @.str.297
  call void @appendPQExpBufferStr(ptr noundef nonnull %3, ptr noundef nonnull %.str.298..str.297.i) #15
  %40 = load ptr, ptr @connstr, align 8
  call void (ptr, ptr, ...) @appendPQExpBuffer(ptr noundef nonnull %2, ptr noundef nonnull @.str.299, ptr noundef %40) #15
  call void @appendConnStrVal(ptr noundef nonnull %2, ptr noundef nonnull %13) #15
  %41 = load ptr, ptr %2, align 8
  call void @appendShellString(ptr noundef nonnull %3, ptr noundef %41) #15
  %42 = load ptr, ptr %3, align 8
  call void (i32, i32, ptr, ...) @pg_log_generic(i32 noundef 2, i32 noundef 0, ptr noundef nonnull @.str.300, ptr noundef %42) #15
  %43 = call i32 @fflush(ptr noundef null)
  %44 = load ptr, ptr %3, align 8
  %45 = call i32 @system(ptr noundef %44) #15
  call void @termPQExpBuffer(ptr noundef nonnull %3) #15
  call void @termPQExpBuffer(ptr noundef nonnull %2) #15
  call void @llvm.lifetime.end.p0(i64 24, ptr nonnull %3) #15
  call void @llvm.lifetime.end.p0(i64 24, ptr nonnull %2) #15
  %.not22 = icmp eq i32 %45, 0
  br i1 %.not22, label %47, label %46

46:                                               ; preds = %36
  call void (i32, i32, ptr, ...) @pg_log_generic(i32 noundef 4, i32 noundef 0, ptr noundef nonnull @.str.293, ptr noundef nonnull %13) #15
  call void @exit(i32 noundef 1) #18
  unreachable

47:                                               ; preds = %36
  %48 = load ptr, ptr @filename, align 8
  %.not23 = icmp eq ptr %48, null
  br i1 %.not23, label %53, label %49

49:                                               ; preds = %47
  %50 = call noalias ptr @fopen(ptr noundef nonnull %48, ptr noundef nonnull @.str.294)
  store ptr %50, ptr @OPF, align 8
  %.not24 = icmp eq ptr %50, null
  br i1 %.not24, label %51, label %53

51:                                               ; preds = %49
  %52 = load ptr, ptr @filename, align 8
  call void (i32, i32, ptr, ...) @pg_log_generic(i32 noundef 4, i32 noundef 0, ptr noundef nonnull @.str.295, ptr noundef %52) #15
  call void @exit(i32 noundef 1) #18
  unreachable

53:                                               ; preds = %47, %49, %.lr.ph, %18
  %54 = add nuw nsw i32 %.026, 1
  %55 = call i32 @PQntuples(ptr noundef nonnull %4) #15
  %56 = icmp slt i32 %54, %55
  br i1 %56, label %.lr.ph, label %._crit_edge, !llvm.loop !31

._crit_edge:                                      ; preds = %53, %10
  call void @PQclear(ptr noundef nonnull %4) #15
  ret void
}